; Listing generated by Microsoft (R) Optimizing Compiler Version 19.00.23918.0 

include listing.inc

INCLUDELIB OLDNAMES

EXTRN	longest_match:PROC
EXTRN	match_init:PROC
?my_version@?1??deflateInit2_@@9@9 DB '1.2.10', 00H	; `deflateInit2_'::`2'::my_version
	ORG $+9
configuration_table DW 00H
	DW	00H
	DW	00H
	DW	00H
	DQ	FLAT:deflate_stored
	DW	04H
	DW	04H
	DW	08H
	DW	04H
	DQ	FLAT:deflate_fast
	DW	04H
	DW	05H
	DW	010H
	DW	08H
	DQ	FLAT:deflate_fast
	DW	04H
	DW	06H
	DW	020H
	DW	020H
	DQ	FLAT:deflate_fast
	DW	04H
	DW	04H
	DW	010H
	DW	010H
	DQ	FLAT:deflate_slow
	DW	08H
	DW	010H
	DW	020H
	DW	020H
	DQ	FLAT:deflate_slow
	DW	08H
	DW	010H
	DW	080H
	DW	080H
	DQ	FLAT:deflate_slow
	DW	08H
	DW	020H
	DW	080H
	DW	0100H
	DQ	FLAT:deflate_slow
	DW	020H
	DW	080H
	DW	0102H
	DW	0400H
	DQ	FLAT:deflate_slow
	DW	020H
	DW	0102H
	DW	0102H
	DW	01000H
	DQ	FLAT:deflate_slow
PUBLIC	deflateCopy
PUBLIC	deflateBound
PUBLIC	deflateTune
PUBLIC	deflateParams
PUBLIC	deflatePrime
PUBLIC	deflatePending
PUBLIC	deflateSetHeader
PUBLIC	deflateReset
PUBLIC	deflateResetKeep
PUBLIC	deflateGetDictionary
PUBLIC	deflateSetDictionary
PUBLIC	deflateInit2_
PUBLIC	deflateInit_
PUBLIC	deflateEnd
PUBLIC	deflate
;	COMDAT pdata
pdata	SEGMENT
$pdata$deflate_huff DD imagerel deflate_huff
	DD	imagerel deflate_huff+452
	DD	imagerel $unwind$deflate_huff
pdata	ENDS
;	COMDAT pdata
pdata	SEGMENT
$pdata$deflate_rle DD imagerel deflate_rle
	DD	imagerel deflate_rle+835
	DD	imagerel $unwind$deflate_rle
pdata	ENDS
;	COMDAT pdata
pdata	SEGMENT
$pdata$deflate_slow DD imagerel deflate_slow
	DD	imagerel deflate_slow+1289
	DD	imagerel $unwind$deflate_slow
pdata	ENDS
;	COMDAT pdata
pdata	SEGMENT
$pdata$deflate_fast DD imagerel deflate_fast
	DD	imagerel deflate_fast+1019
	DD	imagerel $unwind$deflate_fast
pdata	ENDS
;	COMDAT pdata
pdata	SEGMENT
$pdata$deflate_stored DD imagerel deflate_stored
	DD	imagerel deflate_stored+16
	DD	imagerel $unwind$deflate_stored
pdata	ENDS
;	COMDAT pdata
pdata	SEGMENT
$pdata$0$deflate_stored DD imagerel deflate_stored+16
	DD	imagerel deflate_stored+24
	DD	imagerel $chain$0$deflate_stored
pdata	ENDS
;	COMDAT pdata
pdata	SEGMENT
$pdata$4$deflate_stored DD imagerel deflate_stored+24
	DD	imagerel deflate_stored+443
	DD	imagerel $chain$4$deflate_stored
pdata	ENDS
;	COMDAT pdata
pdata	SEGMENT
$pdata$5$deflate_stored DD imagerel deflate_stored+443
	DD	imagerel deflate_stored+633
	DD	imagerel $chain$5$deflate_stored
pdata	ENDS
;	COMDAT pdata
pdata	SEGMENT
$pdata$6$deflate_stored DD imagerel deflate_stored+633
	DD	imagerel deflate_stored+1017
	DD	imagerel $chain$6$deflate_stored
pdata	ENDS
;	COMDAT pdata
pdata	SEGMENT
$pdata$fill_window DD imagerel fill_window
	DD	imagerel fill_window+516
	DD	imagerel $unwind$fill_window
pdata	ENDS
;	COMDAT pdata
pdata	SEGMENT
$pdata$lm_init DD imagerel lm_init
	DD	imagerel lm_init+180
	DD	imagerel $unwind$lm_init
pdata	ENDS
;	COMDAT pdata
pdata	SEGMENT
$pdata$read_buf DD imagerel read_buf
	DD	imagerel read_buf+160
	DD	imagerel $unwind$read_buf
pdata	ENDS
;	COMDAT pdata
pdata	SEGMENT
$pdata$deflateCopy DD imagerel $LN13@deflateCop
	DD	imagerel $LN13@deflateCop+41
	DD	imagerel $unwind$deflateCopy
pdata	ENDS
;	COMDAT pdata
pdata	SEGMENT
$pdata$1$deflateCopy DD imagerel $LN13@deflateCop+41
	DD	imagerel $LN13@deflateCop+148
	DD	imagerel $chain$1$deflateCopy
pdata	ENDS
;	COMDAT pdata
pdata	SEGMENT
$pdata$4$deflateCopy DD imagerel $LN13@deflateCop+148
	DD	imagerel $LN13@deflateCop+597
	DD	imagerel $chain$4$deflateCopy
pdata	ENDS
;	COMDAT pdata
pdata	SEGMENT
$pdata$6$deflateCopy DD imagerel $LN13@deflateCop+597
	DD	imagerel $LN13@deflateCop+612
	DD	imagerel $chain$6$deflateCopy
pdata	ENDS
;	COMDAT pdata
pdata	SEGMENT
$pdata$7$deflateCopy DD imagerel $LN13@deflateCop+612
	DD	imagerel $LN13@deflateCop+623
	DD	imagerel $chain$7$deflateCopy
pdata	ENDS
;	COMDAT pdata
pdata	SEGMENT
$pdata$flush_pending DD imagerel flush_pending
	DD	imagerel flush_pending+52
	DD	imagerel $unwind$flush_pending
pdata	ENDS
;	COMDAT pdata
pdata	SEGMENT
$pdata$0$flush_pending DD imagerel flush_pending+52
	DD	imagerel flush_pending+91
	DD	imagerel $chain$0$flush_pending
pdata	ENDS
;	COMDAT pdata
pdata	SEGMENT
$pdata$1$flush_pending DD imagerel flush_pending+91
	DD	imagerel flush_pending+115
	DD	imagerel $chain$1$flush_pending
pdata	ENDS
;	COMDAT pdata
pdata	SEGMENT
$pdata$deflateBound DD imagerel $LN30@deflateBou
	DD	imagerel $LN30@deflateBou+263
	DD	imagerel $unwind$deflateBound
pdata	ENDS
;	COMDAT pdata
pdata	SEGMENT
$pdata$deflateTune DD imagerel $LN5@deflateTun
	DD	imagerel $LN5@deflateTun+71
	DD	imagerel $unwind$deflateTune
pdata	ENDS
;	COMDAT pdata
pdata	SEGMENT
$pdata$deflateParams DD imagerel $LN21@deflatePar
	DD	imagerel $LN21@deflatePar+53
	DD	imagerel $unwind$deflateParams
pdata	ENDS
;	COMDAT pdata
pdata	SEGMENT
$pdata$0$deflateParams DD imagerel $LN21@deflatePar+53
	DD	imagerel $LN21@deflatePar+93
	DD	imagerel $chain$0$deflateParams
pdata	ENDS
;	COMDAT pdata
pdata	SEGMENT
$pdata$1$deflateParams DD imagerel $LN21@deflatePar+93
	DD	imagerel $LN21@deflatePar+165
	DD	imagerel $chain$1$deflateParams
pdata	ENDS
;	COMDAT pdata
pdata	SEGMENT
$pdata$2$deflateParams DD imagerel $LN21@deflatePar+165
	DD	imagerel $LN21@deflatePar+186
	DD	imagerel $chain$2$deflateParams
pdata	ENDS
;	COMDAT pdata
pdata	SEGMENT
$pdata$4$deflateParams DD imagerel $LN21@deflatePar+186
	DD	imagerel $LN21@deflatePar+356
	DD	imagerel $chain$4$deflateParams
pdata	ENDS
;	COMDAT pdata
pdata	SEGMENT
$pdata$5$deflateParams DD imagerel $LN21@deflatePar+356
	DD	imagerel $LN21@deflatePar+366
	DD	imagerel $chain$5$deflateParams
pdata	ENDS
;	COMDAT pdata
pdata	SEGMENT
$pdata$deflatePrime DD imagerel $LN16@deflatePri
	DD	imagerel $LN16@deflatePri+175
	DD	imagerel $unwind$deflatePrime
pdata	ENDS
;	COMDAT pdata
pdata	SEGMENT
$pdata$deflatePending DD imagerel $LN7@deflatePen
	DD	imagerel $LN7@deflatePen+69
	DD	imagerel $unwind$deflatePending
pdata	ENDS
;	COMDAT pdata
pdata	SEGMENT
$pdata$deflateSetHeader DD imagerel $LN6@deflateSet
	DD	imagerel $LN6@deflateSet+50
	DD	imagerel $unwind$deflateSetHeader
pdata	ENDS
;	COMDAT pdata
pdata	SEGMENT
$pdata$deflateReset DD imagerel $LN6@deflateRes
	DD	imagerel $LN6@deflateRes+46
	DD	imagerel $unwind$deflateReset
pdata	ENDS
;	COMDAT pdata
pdata	SEGMENT
$pdata$deflateResetKeep DD imagerel $LN10@deflateRes
	DD	imagerel $LN10@deflateRes+174
	DD	imagerel $unwind$deflateResetKeep
pdata	ENDS
;	COMDAT pdata
pdata	SEGMENT
$pdata$deflateGetDictionary DD imagerel $LN8@deflateGet
	DD	imagerel $LN8@deflateGet+121
	DD	imagerel $unwind$deflateGetDictionary
pdata	ENDS
;	COMDAT pdata
pdata	SEGMENT
$pdata$deflateSetDictionary DD imagerel $LN27@deflateSet
	DD	imagerel $LN27@deflateSet+39
	DD	imagerel $unwind$deflateSetDictionary
pdata	ENDS
;	COMDAT pdata
pdata	SEGMENT
$pdata$1$deflateSetDictionary DD imagerel $LN27@deflateSet+39
	DD	imagerel $LN27@deflateSet+96
	DD	imagerel $chain$1$deflateSetDictionary
pdata	ENDS
;	COMDAT pdata
pdata	SEGMENT
$pdata$4$deflateSetDictionary DD imagerel $LN27@deflateSet+96
	DD	imagerel $LN27@deflateSet+501
	DD	imagerel $chain$4$deflateSetDictionary
pdata	ENDS
;	COMDAT pdata
pdata	SEGMENT
$pdata$5$deflateSetDictionary DD imagerel $LN27@deflateSet+501
	DD	imagerel $LN27@deflateSet+519
	DD	imagerel $chain$5$deflateSetDictionary
pdata	ENDS
;	COMDAT pdata
pdata	SEGMENT
$pdata$7$deflateSetDictionary DD imagerel $LN27@deflateSet+519
	DD	imagerel $LN27@deflateSet+526
	DD	imagerel $chain$7$deflateSetDictionary
pdata	ENDS
;	COMDAT pdata
pdata	SEGMENT
$pdata$8$deflateSetDictionary DD imagerel $LN27@deflateSet+526
	DD	imagerel $LN27@deflateSet+539
	DD	imagerel $chain$8$deflateSetDictionary
pdata	ENDS
;	COMDAT pdata
pdata	SEGMENT
$pdata$deflateInit2_ DD imagerel $LN24@deflateIni
	DD	imagerel $LN24@deflateIni+91
	DD	imagerel $unwind$deflateInit2_
pdata	ENDS
;	COMDAT pdata
pdata	SEGMENT
$pdata$1$deflateInit2_ DD imagerel $LN24@deflateIni+91
	DD	imagerel $LN24@deflateIni+276
	DD	imagerel $chain$1$deflateInit2_
pdata	ENDS
;	COMDAT pdata
pdata	SEGMENT
$pdata$2$deflateInit2_ DD imagerel $LN24@deflateIni+276
	DD	imagerel $LN24@deflateIni+576
	DD	imagerel $chain$2$deflateInit2_
pdata	ENDS
;	COMDAT pdata
pdata	SEGMENT
$pdata$3$deflateInit2_ DD imagerel $LN24@deflateIni+576
	DD	imagerel $LN24@deflateIni+598
	DD	imagerel $chain$3$deflateInit2_
pdata	ENDS
;	COMDAT pdata
pdata	SEGMENT
$pdata$5$deflateInit2_ DD imagerel $LN24@deflateIni+598
	DD	imagerel $LN24@deflateIni+631
	DD	imagerel $chain$5$deflateInit2_
pdata	ENDS
;	COMDAT pdata
pdata	SEGMENT
$pdata$6$deflateInit2_ DD imagerel $LN24@deflateIni+631
	DD	imagerel $LN24@deflateIni+638
	DD	imagerel $chain$6$deflateInit2_
pdata	ENDS
;	COMDAT pdata
pdata	SEGMENT
$pdata$7$deflateInit2_ DD imagerel $LN24@deflateIni+638
	DD	imagerel $LN24@deflateIni+655
	DD	imagerel $chain$7$deflateInit2_
pdata	ENDS
;	COMDAT pdata
pdata	SEGMENT
$pdata$deflateInit_ DD imagerel $LN4@deflateIni
	DD	imagerel $LN4@deflateIni+50
	DD	imagerel $unwind$deflateInit_
pdata	ENDS
;	COMDAT pdata
pdata	SEGMENT
$pdata$deflateEnd DD imagerel $LN9@deflateEnd
	DD	imagerel $LN9@deflateEnd+156
	DD	imagerel $unwind$deflateEnd
pdata	ENDS
;	COMDAT pdata
pdata	SEGMENT
$pdata$deflate DD imagerel $LN139@deflate
	DD	imagerel $LN139@deflate+42
	DD	imagerel $unwind$deflate
pdata	ENDS
;	COMDAT pdata
pdata	SEGMENT
$pdata$0$deflate DD imagerel $LN139@deflate+42
	DD	imagerel $LN139@deflate+126
	DD	imagerel $chain$0$deflate
pdata	ENDS
;	COMDAT pdata
pdata	SEGMENT
$pdata$3$deflate DD imagerel $LN139@deflate+126
	DD	imagerel $LN139@deflate+185
	DD	imagerel $chain$3$deflate
pdata	ENDS
;	COMDAT pdata
pdata	SEGMENT
$pdata$5$deflate DD imagerel $LN139@deflate+185
	DD	imagerel $LN139@deflate+284
	DD	imagerel $chain$5$deflate
pdata	ENDS
;	COMDAT pdata
pdata	SEGMENT
$pdata$7$deflate DD imagerel $LN139@deflate+284
	DD	imagerel $LN139@deflate+731
	DD	imagerel $chain$7$deflate
pdata	ENDS
;	COMDAT pdata
pdata	SEGMENT
$pdata$9$deflate DD imagerel $LN139@deflate+731
	DD	imagerel $LN139@deflate+1050
	DD	imagerel $chain$9$deflate
pdata	ENDS
;	COMDAT pdata
pdata	SEGMENT
$pdata$12$deflate DD imagerel $LN139@deflate+1050
	DD	imagerel $LN139@deflate+2131
	DD	imagerel $chain$12$deflate
pdata	ENDS
;	COMDAT pdata
pdata	SEGMENT
$pdata$14$deflate DD imagerel $LN139@deflate+2131
	DD	imagerel $LN139@deflate+2352
	DD	imagerel $chain$14$deflate
pdata	ENDS
;	COMDAT pdata
pdata	SEGMENT
$pdata$15$deflate DD imagerel $LN139@deflate+2352
	DD	imagerel $LN139@deflate+2381
	DD	imagerel $chain$15$deflate
pdata	ENDS
;	COMDAT pdata
pdata	SEGMENT
$pdata$16$deflate DD imagerel $LN139@deflate+2381
	DD	imagerel $LN139@deflate+2394
	DD	imagerel $chain$16$deflate
;	COMDAT xdata
xdata	SEGMENT
$chain$16$deflate DD 021H
	DD	imagerel $LN139@deflate
	DD	imagerel $LN139@deflate+42
	DD	imagerel $unwind$deflate
xdata	ENDS
;	COMDAT xdata
xdata	SEGMENT
$chain$15$deflate DQ 00008340000020021r		; 1.14078e-308
	DD	imagerel $LN139@deflate
	DD	imagerel $LN139@deflate+42
	DD	imagerel $unwind$deflate
xdata	ENDS
;	COMDAT xdata
xdata	SEGMENT
$chain$14$deflate DQ 00004f400000a0021r		; 6.88817e-309
	DQ	0000a6400000be400r		; 1.44499e-308
	DQ	00008340000095400r		; 1.14078e-308
	DD	imagerel $LN139@deflate
	DD	imagerel $LN139@deflate+42
	DD	imagerel $unwind$deflate
xdata	ENDS
;	COMDAT xdata
xdata	SEGMENT
$chain$12$deflate DQ 00004f40f00060f21r		; 6.88849e-309
	DQ	000095405000be40ar		; 1.29725e-308
	DD	imagerel $LN139@deflate+731
	DD	imagerel $LN139@deflate+1050
	DD	imagerel $chain$9$deflate
xdata	ENDS
;	COMDAT xdata
xdata	SEGMENT
$chain$9$deflate DQ 0000a640000040021r		; 1.44499e-308
	DD	083400H
	DD	imagerel $LN139@deflate
	DD	imagerel $LN139@deflate+42
	DD	imagerel $unwind$deflate
xdata	ENDS
;	COMDAT xdata
xdata	SEGMENT
$chain$7$deflate DQ 0000a640000040021r		; 1.44499e-308
	DD	083400H
	DD	imagerel $LN139@deflate
	DD	imagerel $LN139@deflate+42
	DD	imagerel $unwind$deflate
xdata	ENDS
;	COMDAT xdata
xdata	SEGMENT
$chain$5$deflate DQ 0000a640000040021r		; 1.44499e-308
	DD	083400H
	DD	imagerel $LN139@deflate
	DD	imagerel $LN139@deflate+42
	DD	imagerel $unwind$deflate
xdata	ENDS
;	COMDAT xdata
xdata	SEGMENT
$chain$3$deflate DQ 0000a640800040821r		; 1.44501e-308
	DD	083400H
	DD	imagerel $LN139@deflate
	DD	imagerel $LN139@deflate+42
	DD	imagerel $unwind$deflate
xdata	ENDS
;	COMDAT xdata
xdata	SEGMENT
$chain$0$deflate DQ 00008340500020521r		; 1.1408e-308
	DD	imagerel $LN139@deflate
	DD	imagerel $LN139@deflate+42
	DD	imagerel $unwind$deflate
xdata	ENDS
;	COMDAT xdata
xdata	SEGMENT
$unwind$deflate DQ 0c004420800030801r		; -2.53224
	DD	07002H
xdata	ENDS
;	COMDAT xdata
xdata	SEGMENT
$unwind$deflateEnd DQ 00006742600042601r	; 8.97498e-309
	DD	030023206H
xdata	ENDS
;	COMDAT xdata
xdata	SEGMENT
$unwind$deflateInit_ DQ 00000820400010401r	; 7.06285e-310
xdata	ENDS
;	COMDAT xdata
xdata	SEGMENT
$chain$7$deflateInit2_ DD 021H
	DD	imagerel $LN24@deflateIni
	DD	imagerel $LN24@deflateIni+91
	DD	imagerel $unwind$deflateInit2_
xdata	ENDS
;	COMDAT xdata
xdata	SEGMENT
$chain$6$deflateInit2_ DQ 0000cd40000040021r	; 1.78397e-308
	DD	0bc400H
	DD	imagerel $LN24@deflateIni
	DD	imagerel $LN24@deflateIni+91
	DD	imagerel $unwind$deflateInit2_
xdata	ENDS
;	COMDAT xdata
xdata	SEGMENT
$chain$5$deflateInit2_ DQ 0000cd40000060021r	; 1.78397e-308
	DQ	0000a6400000bc400r		; 1.44499e-308
	DD	imagerel $LN24@deflateIni
	DD	imagerel $LN24@deflateIni+91
	DD	imagerel $unwind$deflateInit2_
xdata	ENDS
;	COMDAT xdata
xdata	SEGMENT
$chain$3$deflateInit2_ DD 021H
	DD	imagerel $LN24@deflateIni+91
	DD	imagerel $LN24@deflateIni+276
	DD	imagerel $chain$1$deflateInit2_
xdata	ENDS
;	COMDAT xdata
xdata	SEGMENT
$chain$2$deflateInit2_ DQ 0000a640500020521r	; 1.445e-308
	DD	imagerel $LN24@deflateIni+91
	DD	imagerel $LN24@deflateIni+276
	DD	imagerel $chain$1$deflateInit2_
xdata	ENDS
;	COMDAT xdata
xdata	SEGMENT
$chain$1$deflateInit2_ DQ 0000bc45f00045f21r	; 1.63641e-308
	DD	0cd405H
	DD	imagerel $LN24@deflateIni
	DD	imagerel $LN24@deflateIni+91
	DD	imagerel $unwind$deflateInit2_
xdata	ENDS
;	COMDAT xdata
xdata	SEGMENT
$unwind$deflateInit2_ DQ 0f008320c00060c01r	; -4.69549e+231
	DQ	0300250037004e006r		; 1.97688e-77
xdata	ENDS
;	COMDAT xdata
xdata	SEGMENT
$chain$8$deflateSetDictionary DD 021H
	DD	imagerel $LN27@deflateSet
	DD	imagerel $LN27@deflateSet+39
	DD	imagerel $unwind$deflateSetDictionary
xdata	ENDS
;	COMDAT xdata
xdata	SEGMENT
$chain$7$deflateSetDictionary DQ 00005e40000040021r ; 8.19192e-309
	DD	0a3400H
	DD	imagerel $LN27@deflateSet
	DD	imagerel $LN27@deflateSet+39
	DD	imagerel $unwind$deflateSetDictionary
xdata	ENDS
;	COMDAT xdata
xdata	SEGMENT
$chain$5$deflateSetDictionary DD 021H
	DD	imagerel $LN27@deflateSet+39
	DD	imagerel $LN27@deflateSet+96
	DD	imagerel $chain$1$deflateSetDictionary
xdata	ENDS
;	COMDAT xdata
xdata	SEGMENT
$chain$4$deflateSetDictionary DQ 00004f40f00060f21r ; 6.88849e-309
	DQ	0000bc405000cd40ar		; 1.63622e-308
	DD	imagerel $LN27@deflateSet+39
	DD	imagerel $LN27@deflateSet+96
	DD	imagerel $chain$1$deflateSetDictionary
xdata	ENDS
;	COMDAT xdata
xdata	SEGMENT
$chain$1$deflateSetDictionary DQ 00005e40e00040e21r ; 8.19222e-309
	DD	0a3405H
	DD	imagerel $LN27@deflateSet
	DD	imagerel $LN27@deflateSet+39
	DD	imagerel $unwind$deflateSetDictionary
xdata	ENDS
;	COMDAT xdata
xdata	SEGMENT
$unwind$deflateSetDictionary DQ 07004520800040801r ; 3.94348e+231
	DD	050026003H
xdata	ENDS
;	COMDAT xdata
xdata	SEGMENT
$unwind$deflateGetDictionary DQ 00006342c00042c01r ; 8.62744e-309
	DD	070023206H
xdata	ENDS
;	COMDAT xdata
xdata	SEGMENT
$unwind$deflateResetKeep DQ 00007643200063201r	; 1.0279e-308
	DQ	07002320600063429r		; 3.53109e+231
xdata	ENDS
;	COMDAT xdata
xdata	SEGMENT
$unwind$deflateReset DQ 00006340a00040a01r	; 8.62672e-309
	DD	07006320aH
xdata	ENDS
;	COMDAT xdata
xdata	SEGMENT
$unwind$deflateSetHeader DQ 00000420400010401r	; 3.58617e-310
xdata	ENDS
;	COMDAT xdata
xdata	SEGMENT
$unwind$deflatePending DQ 00000420400010401r	; 3.58617e-310
xdata	ENDS
;	COMDAT xdata
xdata	SEGMENT
$unwind$deflatePrime DQ 00006340a00040a01r	; 8.62672e-309
	DD	07006320aH
xdata	ENDS
;	COMDAT xdata
xdata	SEGMENT
$chain$5$deflateParams DQ 00006340000020021r	; 8.62651e-309
	DD	imagerel $LN21@deflatePar
	DD	imagerel $LN21@deflatePar+53
	DD	imagerel $unwind$deflateParams
xdata	ENDS
;	COMDAT xdata
xdata	SEGMENT
$chain$4$deflateParams DQ 00007e40000040021r	; 1.09733e-308
	DD	063400H
	DD	imagerel $LN21@deflatePar
	DD	imagerel $LN21@deflatePar+53
	DD	imagerel $unwind$deflateParams
xdata	ENDS
;	COMDAT xdata
xdata	SEGMENT
$chain$2$deflateParams DD 021H
	DD	imagerel $LN21@deflatePar+53
	DD	imagerel $LN21@deflatePar+93
	DD	imagerel $chain$0$deflateParams
xdata	ENDS
;	COMDAT xdata
xdata	SEGMENT
$chain$1$deflateParams DQ 00007e40500020521r	; 1.09734e-308
	DD	imagerel $LN21@deflatePar+53
	DD	imagerel $LN21@deflatePar+93
	DD	imagerel $chain$0$deflateParams
xdata	ENDS
;	COMDAT xdata
xdata	SEGMENT
$chain$0$deflateParams DQ 00006340500020521r	; 8.62661e-309
	DD	imagerel $LN21@deflatePar
	DD	imagerel $LN21@deflatePar+53
	DD	imagerel $unwind$deflateParams
xdata	ENDS
;	COMDAT xdata
xdata	SEGMENT
$unwind$deflateParams DQ 00009640f00060f01r	; 1.30596e-308
	DQ	0700b320f0008540fr		; 5.2777e+231
xdata	ENDS
;	COMDAT xdata
xdata	SEGMENT
$unwind$deflateTune DQ 00000420400010401r	; 3.58617e-310
xdata	ENDS
;	COMDAT xdata
xdata	SEGMENT
$unwind$deflateBound DQ 00000420400010401r	; 3.58617e-310
xdata	ENDS
;	COMDAT xdata
xdata	SEGMENT
$chain$1$flush_pending DD 021H
	DD	imagerel flush_pending
	DD	imagerel flush_pending+52
	DD	imagerel $unwind$flush_pending
xdata	ENDS
;	COMDAT xdata
xdata	SEGMENT
$chain$0$flush_pending DQ 00006340500020521r	; 8.62661e-309
	DD	imagerel flush_pending
	DD	imagerel flush_pending+52
	DD	imagerel $unwind$flush_pending
xdata	ENDS
;	COMDAT xdata
xdata	SEGMENT
$unwind$flush_pending DQ 00008640f00060f01r	; 1.16689e-308
	DQ	0700b320f0007540fr		; 5.2777e+231
xdata	ENDS
;	COMDAT xdata
xdata	SEGMENT
$chain$7$deflateCopy DD 021H
	DD	imagerel $LN13@deflateCop
	DD	imagerel $LN13@deflateCop+41
	DD	imagerel $unwind$deflateCopy
xdata	ENDS
;	COMDAT xdata
xdata	SEGMENT
$chain$6$deflateCopy DQ 00008e40000060021r	; 1.23639e-308
	DQ	00006640000077400r		; 8.88726e-309
	DD	imagerel $LN13@deflateCop
	DD	imagerel $LN13@deflateCop+41
	DD	imagerel $unwind$deflateCopy
xdata	ENDS
;	COMDAT xdata
xdata	SEGMENT
$chain$4$deflateCopy DQ 00008e40f00060f21r	; 1.23643e-308
	DQ	00006640000077400r		; 8.88726e-309
	DD	imagerel $LN13@deflateCop
	DD	imagerel $LN13@deflateCop+41
	DD	imagerel $unwind$deflateCopy
xdata	ENDS
;	COMDAT xdata
xdata	SEGMENT
$chain$1$deflateCopy DQ 00007741400041421r	; 1.03653e-308
	DD	066405H
	DD	imagerel $LN13@deflateCop
	DD	imagerel $LN13@deflateCop+41
	DD	imagerel $unwind$deflateCopy
xdata	ENDS
;	COMDAT xdata
xdata	SEGMENT
$unwind$deflateCopy DQ 03002320600020601r	; 1.96423e-77
xdata	ENDS
;	COMDAT xdata
xdata	SEGMENT
$unwind$read_buf DQ 00006544700084701r		; 8.80185e-309
	DQ	00007340f0008640fr		; 1.00175e-308
	DD	0700b320fH
xdata	ENDS
;	COMDAT xdata
xdata	SEGMENT
$unwind$lm_init DQ 00006340a00040a01r		; 8.62672e-309
	DD	07006320aH
xdata	ENDS
;	COMDAT xdata
xdata	SEGMENT
$unwind$fill_window DQ 00007640f00060f01r	; 1.02782e-308
	DQ	0700b320f0006340fr		; 5.2777e+231
xdata	ENDS
;	COMDAT xdata
xdata	SEGMENT
$chain$6$deflate_stored DQ 0000d740000020021r	; 1.87089e-308
	DD	imagerel deflate_stored
	DD	imagerel deflate_stored+16
	DD	imagerel $unwind$deflate_stored
xdata	ENDS
;	COMDAT xdata
xdata	SEGMENT
$chain$5$deflate_stored DQ 0000d740000020021r	; 1.87089e-308
	DD	imagerel deflate_stored+16
	DD	imagerel deflate_stored+24
	DD	imagerel $chain$0$deflate_stored
xdata	ENDS
;	COMDAT xdata
xdata	SEGMENT
$chain$4$deflate_stored DQ 0000d743700083721r	; 1.871e-308
	DQ	0000b541a000c6432r		; 1.57542e-308
	DD	04d405H
	DD	imagerel deflate_stored+16
	DD	imagerel deflate_stored+24
	DD	imagerel $chain$0$deflate_stored
xdata	ENDS
;	COMDAT xdata
xdata	SEGMENT
$chain$0$deflate_stored DQ 00005c40500020521r	; 8.01819e-309
	DD	imagerel deflate_stored
	DD	imagerel deflate_stored+16
	DD	imagerel $unwind$deflate_stored
xdata	ENDS
;	COMDAT xdata
xdata	SEGMENT
$unwind$deflate_stored DQ 0f006520a00040a01r	; -4.33162e+231
	DD	03002e004H
xdata	ENDS
;	COMDAT xdata
xdata	SEGMENT
$unwind$deflate_fast DQ 0000a6418000a1801r	; 1.44505e-308
	DQ	00008341800095418r		; 1.14084e-308
	DQ	07010e012f0143218r		; 6.5498e+231
xdata	ENDS
;	COMDAT xdata
xdata	SEGMENT
$unwind$deflate_slow DQ 0000a641e000c1e01r	; 1.44506e-308
	DQ	0000b3417000c5417r		; 1.55804e-308
	DQ	0d00fe011f0133217r		; -4.61363e+77
	DD	0700bc00dH
xdata	ENDS
;	COMDAT xdata
xdata	SEGMENT
$unwind$deflate_rle DQ 00009741a000a1a01r	; 1.31467e-308
	DQ	00007541a0008641ar		; 1.01916e-308
	DQ	0e016321a0006341ar		; -7.4399e+154
xdata	ENDS
;	COMDAT xdata
xdata	SEGMENT
$unwind$deflate_huff DQ 00007640f00060f01r	; 1.02782e-308
	DQ	0700b320f0006340fr		; 5.2777e+231
END
