; Listing generated by Microsoft (R) Optimizing Compiler Version 19.00.23918.0 

include listing.inc

INCLUDELIB OLDNAMES

PUBLIC	??_C@_0CH@DEEGAHIB@internal?5error?3?5deflate?5stream?5c@ ; `string'
PUBLIC	??_C@_0CF@MLPJFDMM@requested?5length?5does?5not?5fit?5in@ ; `string'
EXTRN	__imp__write:PROC
;	COMDAT ??_C@_0CF@MLPJFDMM@requested?5length?5does?5not?5fit?5in@
CONST	SEGMENT
??_C@_0CF@MLPJFDMM@requested?5length?5does?5not?5fit?5in@ DB 'requested l'
	DB	'ength does not fit in int', 00H		; `string'
CONST	ENDS
;	COMDAT ??_C@_0CH@DEEGAHIB@internal?5error?3?5deflate?5stream?5c@
CONST	SEGMENT
??_C@_0CH@DEEGAHIB@internal?5error?3?5deflate?5stream?5c@ DB 'internal er'
	DB	'ror: deflate stream corrupt', 00H		; `string'
PUBLIC	gzsetparams
PUBLIC	gzflush
PUBLIC	gzprintf
PUBLIC	gzvprintf
PUBLIC	gzputs
PUBLIC	gzputc
PUBLIC	gzfwrite
PUBLIC	gzwrite
PUBLIC	gzclose_w
;	COMDAT pdata
pdata	SEGMENT
$pdata$gzsetparams DD imagerel $LN15@gzsetparam
	DD	imagerel $LN15@gzsetparam+193
	DD	imagerel $unwind$gzsetparams
pdata	ENDS
;	COMDAT pdata
pdata	SEGMENT
$pdata$gzflush DD imagerel $LN12@gzflush
	DD	imagerel $LN12@gzflush+107
	DD	imagerel $unwind$gzflush
pdata	ENDS
;	COMDAT pdata
pdata	SEGMENT
$pdata$gzprintf DD imagerel $LN4@gzprintf
	DD	imagerel $LN4@gzprintf+34
	DD	imagerel $unwind$gzprintf
pdata	ENDS
;	COMDAT pdata
pdata	SEGMENT
$pdata$gzvprintf DD imagerel $LN17@gzvprintf
	DD	imagerel $LN17@gzvprintf+318
	DD	imagerel $unwind$gzvprintf
pdata	ENDS
;	COMDAT pdata
pdata	SEGMENT
$pdata$gzputs DD imagerel $LN10@gzputs
	DD	imagerel $LN10@gzputs+30
	DD	imagerel $unwind$gzputs
pdata	ENDS
;	COMDAT pdata
pdata	SEGMENT
$pdata$0$gzputs DD imagerel $LN10@gzputs+30
	DD	imagerel $LN10@gzputs+79
	DD	imagerel $chain$0$gzputs
pdata	ENDS
;	COMDAT pdata
pdata	SEGMENT
$pdata$1$gzputs DD imagerel $LN10@gzputs+79
	DD	imagerel $LN10@gzputs+89
	DD	imagerel $chain$1$gzputs
pdata	ENDS
;	COMDAT pdata
pdata	SEGMENT
$pdata$gzputc DD imagerel $LN14@gzputc
	DD	imagerel $LN14@gzputc+190
	DD	imagerel $unwind$gzputc
pdata	ENDS
;	COMDAT pdata
pdata	SEGMENT
$pdata$gzfwrite DD imagerel $LN10@gzfwrite
	DD	imagerel $LN10@gzfwrite+114
	DD	imagerel $unwind$gzfwrite
pdata	ENDS
;	COMDAT pdata
pdata	SEGMENT
$pdata$gzwrite DD imagerel $LN8@gzwrite
	DD	imagerel $LN8@gzwrite+65
	DD	imagerel $unwind$gzwrite
pdata	ENDS
;	COMDAT pdata
pdata	SEGMENT
$pdata$gz_write DD imagerel gz_write
	DD	imagerel gz_write+97
	DD	imagerel $unwind$gz_write
pdata	ENDS
;	COMDAT pdata
pdata	SEGMENT
$pdata$1$gz_write DD imagerel gz_write+97
	DD	imagerel gz_write+228
	DD	imagerel $chain$1$gz_write
pdata	ENDS
;	COMDAT pdata
pdata	SEGMENT
$pdata$3$gz_write DD imagerel gz_write+228
	DD	imagerel gz_write+317
	DD	imagerel $chain$3$gz_write
pdata	ENDS
;	COMDAT pdata
pdata	SEGMENT
$pdata$gz_zero DD imagerel gz_zero
	DD	imagerel gz_zero+50
	DD	imagerel $unwind$gz_zero
pdata	ENDS
;	COMDAT pdata
pdata	SEGMENT
$pdata$1$gz_zero DD imagerel gz_zero+50
	DD	imagerel gz_zero+172
	DD	imagerel $chain$1$gz_zero
pdata	ENDS
;	COMDAT pdata
pdata	SEGMENT
$pdata$3$gz_zero DD imagerel gz_zero+172
	DD	imagerel gz_zero+177
	DD	imagerel $chain$3$gz_zero
pdata	ENDS
;	COMDAT pdata
pdata	SEGMENT
$pdata$gz_comp DD imagerel gz_comp
	DD	imagerel gz_comp+179
	DD	imagerel $unwind$gz_comp
pdata	ENDS
;	COMDAT pdata
pdata	SEGMENT
$pdata$1$gz_comp DD imagerel gz_comp+179
	DD	imagerel gz_comp+447
	DD	imagerel $chain$1$gz_comp
pdata	ENDS
;	COMDAT pdata
pdata	SEGMENT
$pdata$2$gz_comp DD imagerel gz_comp+447
	DD	imagerel gz_comp+469
	DD	imagerel $chain$2$gz_comp
pdata	ENDS
;	COMDAT pdata
pdata	SEGMENT
$pdata$gz_init DD imagerel gz_init
	DD	imagerel gz_init+70
	DD	imagerel $unwind$gz_init
pdata	ENDS
;	COMDAT pdata
pdata	SEGMENT
$pdata$0$gz_init DD imagerel gz_init+70
	DD	imagerel gz_init+240
	DD	imagerel $chain$0$gz_init
pdata	ENDS
;	COMDAT pdata
pdata	SEGMENT
$pdata$2$gz_init DD imagerel gz_init+240
	DD	imagerel gz_init+295
	DD	imagerel $chain$2$gz_init
pdata	ENDS
;	COMDAT pdata
pdata	SEGMENT
$pdata$gzclose_w DD imagerel $LN13@gzclose_w
	DD	imagerel $LN13@gzclose_w+194
	DD	imagerel $unwind$gzclose_w
;	COMDAT xdata
xdata	SEGMENT
$unwind$gzclose_w DQ 00006340a00040a01r		; 8.62672e-309
	DD	07006320aH
xdata	ENDS
;	COMDAT xdata
xdata	SEGMENT
$chain$2$gz_init DQ 0000a640000020021r		; 1.44499e-308
	DD	imagerel gz_init
	DD	imagerel gz_init+70
	DD	imagerel $unwind$gz_init
xdata	ENDS
;	COMDAT xdata
xdata	SEGMENT
$chain$0$gz_init DQ 0000a640500020521r		; 1.445e-308
	DD	imagerel gz_init
	DD	imagerel gz_init+70
	DD	imagerel $unwind$gz_init
xdata	ENDS
;	COMDAT xdata
xdata	SEGMENT
$unwind$gz_init DQ 0000b340a00040a01r		; 1.55801e-308
	DD	07006720aH
xdata	ENDS
;	COMDAT xdata
xdata	SEGMENT
$chain$2$gz_comp DD 021H
	DD	imagerel gz_comp
	DD	imagerel gz_comp+179
	DD	imagerel $unwind$gz_comp
xdata	ENDS
;	COMDAT xdata
xdata	SEGMENT
$chain$1$gz_comp DQ 00006540500020521r		; 8.80045e-309
	DD	imagerel gz_comp
	DD	imagerel gz_comp+179
	DD	imagerel $unwind$gz_comp
xdata	ENDS
;	COMDAT xdata
xdata	SEGMENT
$unwind$gz_comp DQ 00007644200084201r		; 1.02793e-308
	DQ	00008341000097410r		; 1.14082e-308
	DD	0e00c3210H
xdata	ENDS
;	COMDAT xdata
xdata	SEGMENT
$chain$3$gz_zero DQ 00007640000040021r		; 1.02779e-308
	DD	065400H
	DD	imagerel gz_zero
	DD	imagerel gz_zero+50
	DD	imagerel $unwind$gz_zero
xdata	ENDS
;	COMDAT xdata
xdata	SEGMENT
$chain$1$gz_zero DQ 00007640f00040f21r		; 1.02782e-308
	DD	065405H
	DD	imagerel gz_zero
	DD	imagerel gz_zero+50
	DD	imagerel $unwind$gz_zero
xdata	ENDS
;	COMDAT xdata
xdata	SEGMENT
$unwind$gz_zero DQ 00008340a00040a01r		; 1.14081e-308
	DD	07006320aH
xdata	ENDS
;	COMDAT xdata
xdata	SEGMENT
$chain$3$gz_write DQ 00009740000040021r		; 1.31462e-308
	DD	086400H
	DD	imagerel gz_write
	DD	imagerel gz_write+97
	DD	imagerel $unwind$gz_write
xdata	ENDS
;	COMDAT xdata
xdata	SEGMENT
$chain$1$gz_write DQ 00009740a00040a21r		; 1.31464e-308
	DD	086405H
	DD	imagerel gz_write
	DD	imagerel gz_write+97
	DD	imagerel $unwind$gz_write
xdata	ENDS
;	COMDAT xdata
xdata	SEGMENT
$unwind$gz_write DQ 0000a340e00060e01r		; 1.41895e-308
	DQ	05006e008f00a320er		; 3.31095e+77
xdata	ENDS
;	COMDAT xdata
xdata	SEGMENT
$unwind$gzwrite DQ 00000420400010401r		; 3.58617e-310
xdata	ENDS
;	COMDAT xdata
xdata	SEGMENT
$unwind$gzfwrite DQ 03002320600020601r		; 1.96423e-77
xdata	ENDS
;	COMDAT xdata
xdata	SEGMENT
$unwind$gzputc DQ 00007340a00040a01r		; 1.00174e-308
	DD	07006320aH
xdata	ENDS
;	COMDAT xdata
xdata	SEGMENT
$chain$1$gzputs DD 021H
	DD	imagerel $LN10@gzputs
	DD	imagerel $LN10@gzputs+30
	DD	imagerel $unwind$gzputs
xdata	ENDS
;	COMDAT xdata
xdata	SEGMENT
$chain$0$gzputs DQ 00006340500020521r		; 8.62661e-309
	DD	imagerel $LN10@gzputs
	DD	imagerel $LN10@gzputs+30
	DD	imagerel $unwind$gzputs
xdata	ENDS
;	COMDAT xdata
xdata	SEGMENT
$unwind$gzputs DQ 07002320600020601r		; 3.53109e+231
xdata	ENDS
;	COMDAT xdata
xdata	SEGMENT
$unwind$gzvprintf DQ 00006648d00088d01r		; 8.89025e-309
	DQ	00007340f0008540fr		; 1.00175e-308
	DD	0700b320fH
xdata	ENDS
;	COMDAT xdata
xdata	SEGMENT
$unwind$gzprintf DQ 00000421300011301r		; 3.58936e-310
xdata	ENDS
;	COMDAT xdata
xdata	SEGMENT
$unwind$gzflush DQ 00006340a00040a01r		; 8.62672e-309
	DD	07006320aH
xdata	ENDS
;	COMDAT xdata
xdata	SEGMENT
$unwind$gzsetparams DQ 00006543b00083b01r	; 8.80159e-309
	DQ	00007340f0008640fr		; 1.00175e-308
	DD	0700b320fH
END
